; Function Attrs: mustprogress uwtable
define hidden void @_ZN2cv22getWriterPluginVersionB5cxx11ERKNS_3PtrINS_15IBackendFactoryEEERiS5_(ptr dead_on_unwind noalias writable sret(%"class.std::__cxx11::basic_string") align 8 %0, ptr nocapture noundef nonnull readonly align 8 dereferenceable(16) %1, ptr noundef nonnull align 4 dereferenceable(4) %2, ptr noundef nonnull align 4 dereferenceable(4) %3) local_unnamed_addr #3 personality ptr @__gxx_personality_v0 {
  %5 = alloca %"class.std::__cxx11::basic_string", align 8
  %6 = alloca %"class.std::__cxx11::basic_string", align 8
  %7 = alloca %"class.std::allocator.0", align 1
  %8 = alloca %"class.std::__cxx11::basic_string", align 8
  %9 = alloca %"class.std::allocator.0", align 1
  %10 = load ptr, ptr %1, align 8
  %.not16 = icmp eq ptr %10, null
  br i1 %.not16, label %11, label %19

11:                                               ; preds = %4
  call void @_ZNSaIcEC1Ev(ptr noundef nonnull align 1 dereferenceable(1) %7) #19
  invoke void @_ZNSt7__cxx1112basic_stringIcSt11char_traitsIcESaIcEEC1EPKcRKS3_(ptr noundef nonnull align 8 dereferenceable(32) %6, ptr noundef nonnull @.str.11, ptr noundef nonnull align 1 dereferenceable(1) %7)
          to label %12 unwind label %14

12:                                               ; preds = %11
  invoke void @_ZN2cv5errorEiRKNSt7__cxx1112basic_stringIcSt11char_traitsIcESaIcEEEPKcS9_i(i32 noundef -215, ptr noundef nonnull align 8 dereferenceable(32) %6, ptr noundef nonnull @__func__._ZN2cv22getWriterPluginVersionB5cxx11ERKNS_3PtrINS_15IBackendFactoryEEERiS5_, ptr noundef nonnull @.str.4, i32 noundef 770) #24
          to label %13 unwind label %16

13:                                               ; preds = %12
  unreachable

14:                                               ; preds = %11
  %15 = landingpad { ptr, i32 }
          cleanup
  br label %18

16:                                               ; preds = %12
  %17 = landingpad { ptr, i32 }
          cleanup
  call void @_ZNSt7__cxx1112basic_stringIcSt11char_traitsIcESaIcEED1Ev(ptr noundef nonnull align 8 dereferenceable(32) %6) #19
  br label %18

18:                                               ; preds = %16, %14
  %.pn = phi { ptr, i32 } [ %17, %16 ], [ %15, %14 ]
  call void @_ZNSaIcED1Ev(ptr noundef nonnull align 1 dereferenceable(1) %7) #19
  br label %common.resume

19:                                               ; preds = %4
  %20 = tail call ptr @__dynamic_cast(ptr nonnull %10, ptr nonnull @_ZTIN2cv15IBackendFactoryE, ptr nonnull @_ZTIN2cv4impl20PluginBackendFactoryE, i64 0) #19
  %.not = icmp eq ptr %20, null
  br i1 %.not, label %21, label %29

21:                                               ; preds = %19
  call void @_ZNSaIcEC1Ev(ptr noundef nonnull align 1 dereferenceable(1) %9) #19
  invoke void @_ZNSt7__cxx1112basic_stringIcSt11char_traitsIcESaIcEEC1EPKcRKS3_(ptr noundef nonnull align 8 dereferenceable(32) %8, ptr noundef nonnull @.str.12, ptr noundef nonnull align 1 dereferenceable(1) %9)
          to label %22 unwind label %24

22:                                               ; preds = %21
  invoke void @_ZN2cv5errorEiRKNSt7__cxx1112basic_stringIcSt11char_traitsIcESaIcEEEPKcS9_i(i32 noundef -215, ptr noundef nonnull align 8 dereferenceable(32) %8, ptr noundef nonnull @__func__._ZN2cv22getWriterPluginVersionB5cxx11ERKNS_3PtrINS_15IBackendFactoryEEERiS5_, ptr noundef nonnull @.str.4, i32 noundef 772) #24
          to label %23 unwind label %26

23:                                               ; preds = %22
  unreachable

24:                                               ; preds = %21
  %25 = landingpad { ptr, i32 }
          cleanup
  br label %28

26:                                               ; preds = %22
  %27 = landingpad { ptr, i32 }
          cleanup
  call void @_ZNSt7__cxx1112basic_stringIcSt11char_traitsIcESaIcEED1Ev(ptr noundef nonnull align 8 dereferenceable(32) %8) #19
  br label %28

28:                                               ; preds = %26, %24
  %.pn13 = phi { ptr, i32 } [ %27, %26 ], [ %25, %24 ]
  call void @_ZNSaIcED1Ev(ptr noundef nonnull align 1 dereferenceable(1) %9) #19
  br label %common.resume

29:                                               ; preds = %19
  call void @llvm.lifetime.start.p0(i64 32, ptr nonnull %5)
  %30 = getelementptr inbounds i8, ptr %20, i64 40
  %31 = load i8, ptr %30, align 8, !noalias !85
  %32 = trunc i8 %31 to i1
  br i1 %32, label %_ZNK2cv4impl20PluginBackendFactory11initBackendEv.exit.i, label %33

33:                                               ; preds = %29
  tail call void @_ZN2cv4impl20PluginBackendFactory12initBackend_Ev(ptr noundef nonnull align 8 dereferenceable(41) %20), !noalias !85
  br label %_ZNK2cv4impl20PluginBackendFactory11initBackendEv.exit.i

_ZNK2cv4impl20PluginBackendFactory11initBackendEv.exit.i: ; preds = %33, %29
  %34 = getelementptr inbounds i8, ptr %20, i64 24
  %35 = load ptr, ptr %34, align 8, !noalias !85
  %.not.i = icmp eq ptr %35, null
  br i1 %.not.i, label %36, label %_ZNK2cv4impl20PluginBackendFactory22getWriterPluginVersionB5cxx11ERiS2_.exit

36:                                               ; preds = %_ZNK2cv4impl20PluginBackendFactory11initBackendEv.exit.i
  %37 = getelementptr inbounds i8, ptr %20, i64 16
  %38 = load ptr, ptr %37, align 8, !noalias !85
  call void (ptr, ptr, ...) @_ZN2cv6formatB5cxx11EPKcz(ptr dead_on_unwind nonnull writable sret(%"class.std::__cxx11::basic_string") align 8 %5, ptr noundef nonnull @.str.49, ptr noundef %38), !noalias !85
  invoke void @_ZN2cv5errorEiRKNSt7__cxx1112basic_stringIcSt11char_traitsIcESaIcEEEPKcS9_i(i32 noundef -213, ptr noundef nonnull align 8 dereferenceable(32) %5, ptr noundef nonnull @__func__._ZN2cv22getWriterPluginVersionB5cxx11ERKNS_3PtrINS_15IBackendFactoryEEERiS5_, ptr noundef nonnull @.str.4, i32 noundef 272) #24
          to label %39 unwind label %40, !noalias !85

39:                                               ; preds = %36
  unreachable

common.resume:                                    ; preds = %18, %28, %40
  %common.resume.op = phi { ptr, i32 } [ %41, %40 ], [ %.pn13, %28 ], [ %.pn, %18 ]
  resume { ptr, i32 } %common.resume.op

40:                                               ; preds = %36
  %41 = landingpad { ptr, i32 }
          cleanup
  call void @_ZNSt7__cxx1112basic_stringIcSt11char_traitsIcESaIcEED1Ev(ptr noundef nonnull align 8 dereferenceable(32) %5) #19, !noalias !85
  br label %common.resume

_ZNK2cv4impl20PluginBackendFactory22getWriterPluginVersionB5cxx11ERiS2_.exit: ; preds = %_ZNK2cv4impl20PluginBackendFactory11initBackendEv.exit.i
  tail call void @_ZN2cv4impl13PluginBackend22getWriterPluginVersionB5cxx11ERiS2_(ptr dead_on_unwind writable sret(%"class.std::__cxx11::basic_string") align 8 %0, ptr noundef nonnull align 8 dereferenceable(48) %35, ptr noundef nonnull align 4 dereferenceable(4) %2, ptr noundef nonnull align 4 dereferenceable(4) %3)
  call void @llvm.lifetime.end.p0(i64 32, ptr nonnull %5)
  ret void
}